target datalayout = "e-m:e-p270:32:32-p271:32:32-p272:64:64-i64:64-i128:128-f80:128-n8:16:32:64-S128"
target triple = "x86_64-pc-linux-gnu"

%class.zstring = type { %class.buffer }
%class.buffer = type { ptr, i32, i32, [64 x i8] }

; Function Attrs: mustprogress nounwind uwtable
define linkonce_odr hidden noundef i32 @_ZNK6bufferIjLb1ELj16EE4sizeEv(ptr noundef nonnull align 8 dereferenceable(80) %0) #6 comdat align 2 {
  %2 = alloca ptr, align 8
  store ptr %0, ptr %2, align 8, !tbaa !21
  %3 = load ptr, ptr %2, align 8
  %4 = getelementptr inbounds nuw %class.buffer, ptr %3, i32 0, i32 1
  %5 = load i32, ptr %4, align 8, !tbaa !25
  ret i32 %5
}

; Function Attrs: mustprogress uwtable
define linkonce_odr hidden noundef i32 @_ZNK7zstringixEj(ptr noundef nonnull align 8 dereferenceable(80) %0, i32 noundef %1) #4 comdat align 2 {
  %3 = alloca ptr, align 8
  %4 = alloca i32, align 4
  store ptr %0, ptr %3, align 8, !tbaa !3
  store i32 %1, ptr %4, align 4, !tbaa !16
  %5 = load ptr, ptr %3, align 8
  %6 = getelementptr inbounds nuw %class.zstring, ptr %5, i32 0, i32 0
  %7 = load i32, ptr %4, align 4, !tbaa !16
  %8 = call noundef nonnull align 4 dereferenceable(4) ptr @_ZNK6bufferIjLb1ELj16EEixEj(ptr noundef nonnull align 8 dereferenceable(80) %6, i32 noundef %7)
  %9 = load i32, ptr %8, align 4, !tbaa !16
  ret i32 %9
}

; Function Attrs: mustprogress nounwind uwtable
define linkonce_odr hidden noundef nonnull align 4 dereferenceable(4) ptr @_ZNK6bufferIjLb1ELj16EEixEj(ptr noundef nonnull align 8 dereferenceable(80) %0, i32 noundef %1) #6 comdat align 2 {
  %3 = alloca ptr, align 8
  %4 = alloca i32, align 4
  store ptr %0, ptr %3, align 8, !tbaa !21
  store i32 %1, ptr %4, align 4, !tbaa !16
  %5 = load ptr, ptr %3, align 8
  %6 = getelementptr inbounds nuw %class.buffer, ptr %5, i32 0, i32 0
  %7 = load ptr, ptr %6, align 8, !tbaa !23
  %8 = load i32, ptr %4, align 4, !tbaa !16
  %9 = zext i32 %8 to i64
  %10 = getelementptr inbounds nuw i32, ptr %7, i64 %9
  ret ptr %10
}

; Function Attrs: mustprogress uwtable
define linkonce_odr hidden noundef i32 @_ZNK7zstring6lengthEv(ptr noundef nonnull align 8 dereferenceable(80) %0) #4 comdat align 2 {
  %2 = alloca ptr, align 8
  store ptr %0, ptr %2, align 8, !tbaa !3
  %3 = load ptr, ptr %2, align 8
  %4 = getelementptr inbounds nuw %class.zstring, ptr %3, i32 0, i32 0
  %5 = call noundef i32 @_ZNK6bufferIjLb1ELj16EE4sizeEv(ptr noundef nonnull align 8 dereferenceable(80) %4)
  ret i32 %5
}

; Function Attrs: mustprogress uwtable
define hidden noundef i32 @_ZNK7zstring12last_indexofERKS_(ptr noundef nonnull align 8 dereferenceable(80) %0, ptr noundef nonnull align 8 dereferenceable(80) %1) #4 align 2 {
  %3 = alloca i32, align 4
  %4 = alloca ptr, align 8
  %5 = alloca ptr, align 8
  %6 = alloca i32, align 4
  %7 = alloca i32, align 4
  %8 = alloca i8, align 1
  %9 = alloca i32, align 4
  store ptr %0, ptr %4, align 8, !tbaa !3
  store ptr %1, ptr %5, align 8, !tbaa !3
  %10 = load ptr, ptr %4, align 8
  %11 = load ptr, ptr %5, align 8, !tbaa !3
  %12 = call noundef i32 @_ZNK7zstring6lengthEv(ptr noundef nonnull align 8 dereferenceable(80) %11)
  %13 = icmp eq i32 %12, 0
  br i1 %13, label %14, label %16

14:                                               ; preds = %2
  %15 = call noundef i32 @_ZNK7zstring6lengthEv(ptr noundef nonnull align 8 dereferenceable(80) %10)
  store i32 %15, ptr %3, align 4
  br label %72

16:                                               ; preds = %2
  %17 = load ptr, ptr %5, align 8, !tbaa !3
  %18 = call noundef i32 @_ZNK7zstring6lengthEv(ptr noundef nonnull align 8 dereferenceable(80) %17)
  %19 = call noundef i32 @_ZNK7zstring6lengthEv(ptr noundef nonnull align 8 dereferenceable(80) %10)
  %20 = icmp ugt i32 %18, %19
  br i1 %20, label %21, label %22

21:                                               ; preds = %16
  store i32 -1, ptr %3, align 4
  br label %72

22:                                               ; preds = %16
  call void @llvm.lifetime.start.p0(i64 4, ptr %6) #3
  %23 = call noundef i32 @_ZNK7zstring6lengthEv(ptr noundef nonnull align 8 dereferenceable(80) %10)
  %24 = load ptr, ptr %5, align 8, !tbaa !3
  %25 = call noundef i32 @_ZNK7zstring6lengthEv(ptr noundef nonnull align 8 dereferenceable(80) %24)
  %26 = sub i32 %23, %25
  %27 = add i32 %26, 1
  store i32 %27, ptr %6, align 4, !tbaa !16
  br label %28

28:                                               ; preds = %68, %22
  %29 = load i32, ptr %6, align 4, !tbaa !16
  %30 = add i32 %29, -1
  store i32 %30, ptr %6, align 4, !tbaa !16
  %31 = icmp ugt i32 %29, 0
  br i1 %31, label %33, label %32

32:                                               ; preds = %28
  store i32 2, ptr %7, align 4
  br label %69

33:                                               ; preds = %28
  call void @llvm.lifetime.start.p0(i64 1, ptr %8) #3
  store i8 1, ptr %8, align 1, !tbaa !34
  call void @llvm.lifetime.start.p0(i64 4, ptr %9) #3
  store i32 0, ptr %9, align 4, !tbaa !16
  br label %34

34:                                               ; preds = %57, %33
  %35 = load i8, ptr %8, align 1, !tbaa !34, !range !36, !noundef !37
  %36 = trunc i8 %35 to i1
  br i1 %36, label %37, label %42

37:                                               ; preds = %34
  %38 = load i32, ptr %9, align 4, !tbaa !16
  %39 = load ptr, ptr %5, align 8, !tbaa !3
  %40 = call noundef i32 @_ZNK7zstring6lengthEv(ptr noundef nonnull align 8 dereferenceable(80) %39)
  %41 = icmp ult i32 %38, %40
  br label %42

42:                                               ; preds = %37, %34
  %43 = phi i1 [ false, %34 ], [ %41, %37 ]
  br i1 %43, label %45, label %44

44:                                               ; preds = %42
  store i32 4, ptr %7, align 4
  call void @llvm.lifetime.end.p0(i64 4, ptr %9) #3
  br label %60

45:                                               ; preds = %42
  %46 = getelementptr inbounds nuw %class.zstring, ptr %10, i32 0, i32 0
  %47 = load i32, ptr %6, align 4, !tbaa !16
  %48 = load i32, ptr %9, align 4, !tbaa !16
  %49 = add i32 %47, %48
  %50 = call noundef nonnull align 4 dereferenceable(4) ptr @_ZNK6bufferIjLb1ELj16EEixEj(ptr noundef nonnull align 8 dereferenceable(80) %46, i32 noundef %49)
  %51 = load i32, ptr %50, align 4, !tbaa !16
  %52 = load ptr, ptr %5, align 8, !tbaa !3
  %53 = load i32, ptr %9, align 4, !tbaa !16
  %54 = call noundef i32 @_ZNK7zstringixEj(ptr noundef nonnull align 8 dereferenceable(80) %52, i32 noundef %53)
  %55 = icmp eq i32 %51, %54
  %56 = zext i1 %55 to i8
  store i8 %56, ptr %8, align 1, !tbaa !34
  br label %57

57:                                               ; preds = %45
  %58 = load i32, ptr %9, align 4, !tbaa !16
  %59 = add i32 %58, 1
  store i32 %59, ptr %9, align 4, !tbaa !16
  br label %34, !llvm.loop !52

60:                                               ; preds = %44
  %61 = load i8, ptr %8, align 1, !tbaa !34, !range !36, !noundef !37
  %62 = trunc i8 %61 to i1
  br i1 %62, label %63, label %65

63:                                               ; preds = %60
  %64 = load i32, ptr %6, align 4, !tbaa !16
  store i32 %64, ptr %3, align 4
  store i32 1, ptr %7, align 4
  br label %66

65:                                               ; preds = %60
  store i32 0, ptr %7, align 4
  br label %66

66:                                               ; preds = %65, %63
  call void @llvm.lifetime.end.p0(i64 1, ptr %8) #3
  %67 = load i32, ptr %7, align 4
  switch i32 %67, label %69 [
    i32 0, label %68
  ]

68:                                               ; preds = %66
  br label %28, !llvm.loop !53

69:                                               ; preds = %66, %32
  call void @llvm.lifetime.end.p0(i64 4, ptr %6) #3
  %70 = load i32, ptr %7, align 4
  switch i32 %70, label %74 [
    i32 2, label %71
    i32 1, label %72
  ]

71:                                               ; preds = %69
  store i32 -1, ptr %3, align 4
  br label %72

72:                                               ; preds = %71, %69, %21, %14
  %73 = load i32, ptr %3, align 4
  ret i32 %73

74:                                               ; preds = %69
  unreachable
}