; Function Attrs: mustprogress nofree norecurse nosync nounwind willreturn memory(read, inaccessiblemem: none) uwtable
define hidden noundef i32 @_ZNK7zstring12last_indexofERKS_(ptr noundef nonnull readonly align 8 captures(none) dereferenceable(80) %0, ptr noundef nonnull readonly align 8 captures(none) dereferenceable(80) %1) local_unnamed_addr #8 align 2 {
  %3 = getelementptr inbounds nuw i8, ptr %1, i64 8
  %4 = load i32, ptr %3, align 8, !tbaa !16
  %5 = icmp eq i32 %4, 0
  %6 = getelementptr inbounds nuw i8, ptr %0, i64 8
  %7 = load i32, ptr %6, align 8, !tbaa !16
  br i1 %5, label %.critedge.thread, label %8

8:                                                ; preds = %2
  %9 = icmp ugt i32 %4, %7
  br i1 %9, label %.critedge.thread, label %.preheader.lr.ph

.preheader.lr.ph:                                 ; preds = %8
  %reass.sub = sub nuw i32 %7, %4
  %10 = load ptr, ptr %0, align 8, !tbaa !13
  %11 = load ptr, ptr %1, align 8, !tbaa !13
  %wide.trip.count = zext i32 %4 to i64
  br label %.preheader

.critedge.loopexit:                               ; preds = %15
  %12 = add i32 %13, -1
  %.not = icmp eq i32 %13, 0
  br i1 %.not, label %.critedge.thread, label %.preheader

.preheader:                                       ; preds = %.preheader.lr.ph, %.critedge.loopexit
  %13 = phi i32 [ %reass.sub, %.preheader.lr.ph ], [ %12, %.critedge.loopexit ]
  br label %14

14:                                               ; preds = %.preheader, %15
  %indvars.iv = phi i64 [ 0, %.preheader ], [ %indvars.iv.next, %15 ]
  %exitcond.not = icmp eq i64 %indvars.iv, %wide.trip.count
  br i1 %exitcond.not, label %.critedge.thread, label %15

15:                                               ; preds = %14
  %16 = trunc nuw i64 %indvars.iv to i32
  %17 = add i32 %13, %16
  %18 = zext i32 %17 to i64
  %19 = getelementptr inbounds nuw i32, ptr %10, i64 %18
  %20 = load i32, ptr %19, align 4, !tbaa !9
  %21 = getelementptr inbounds nuw i32, ptr %11, i64 %indvars.iv
  %22 = load i32, ptr %21, align 4, !tbaa !9
  %23 = icmp eq i32 %20, %22
  %indvars.iv.next = add nuw nsw i64 %indvars.iv, 1
  br i1 %23, label %14, label %.critedge.loopexit, !llvm.loop !61

.critedge.thread:                                 ; preds = %.critedge.loopexit, %14, %2, %8
  %.020 = phi i32 [ -1, %8 ], [ %7, %2 ], [ %13, %14 ], [ -1, %.critedge.loopexit ]
  ret i32 %.020
}